; ModuleID = 'source-C-CXX/32/2624.c'
source_filename = "source-C-CXX/32/2624.c"
target datalayout = "e-m:e-p270:32:32-p271:32:32-p272:64:64-i64:64-f80:128-n8:16:32:64-S128"
target triple = "x86_64-pc-linux-gnu"

%struct._IO_FILE = type { i32, i8*, i8*, i8*, i8*, i8*, i8*, i8*, i8*, i8*, i8*, i8*, %struct._IO_marker*, %struct._IO_FILE*, i32, i32, i64, i16, i8, [1 x i8], i8*, i64, %struct._IO_codecvt*, %struct._IO_wide_data*, %struct._IO_FILE*, i8*, i64, i32, [20 x i8] }
%struct._IO_marker = type opaque
%struct._IO_codecvt = type opaque
%struct._IO_wide_data = type opaque

@.str = private unnamed_addr constant [3 x i8] c"%d\00", align 1
@stdin = external local_unnamed_addr global %struct._IO_FILE*, align 8
@stdout = external local_unnamed_addr global %struct._IO_FILE*, align 8

; Function Attrs: nofree nounwind sspstrong uwtable
define dso_local void @main() local_unnamed_addr #0 {
  %1 = alloca i32, align 4
  %2 = bitcast i32* %1 to i8*
  call void @llvm.lifetime.start.p0i8(i64 4, i8* nonnull %2) #3
  %3 = call i32 (i8*, ...) @__isoc99_scanf(i8* getelementptr inbounds ([3 x i8], [3 x i8]* @.str, i64 0, i64 0), i32* nonnull %1)
  %4 = load %struct._IO_FILE*, %struct._IO_FILE** @stdin, align 8, !tbaa !5
  %5 = call i32 @getc(%struct._IO_FILE* %4) #3
  %6 = load i32, i32* %1, align 4, !tbaa !9
  %7 = icmp sgt i32 %6, 0
  br i1 %7, label %8, label %34

8:                                                ; preds = %0, %28
  %9 = load %struct._IO_FILE*, %struct._IO_FILE** @stdin, align 8, !tbaa !5
  %10 = call i32 @getc(%struct._IO_FILE* %9) #3
  %11 = shl i32 %10, 24
  %12 = icmp eq i32 %11, 167772160
  br i1 %12, label %28, label %13

13:                                               ; preds = %8, %23
  %14 = phi i32 [ %26, %23 ], [ %11, %8 ]
  %15 = ashr exact i32 %14, 24
  switch i32 %15, label %23 [
    i32 65, label %19
    i32 84, label %16
    i32 67, label %17
    i32 71, label %18
  ]

16:                                               ; preds = %13
  br label %19

17:                                               ; preds = %13
  br label %19

18:                                               ; preds = %13
  br label %19

19:                                               ; preds = %13, %16, %17, %18
  %20 = phi i32 [ 67, %18 ], [ 71, %17 ], [ 65, %16 ], [ 84, %13 ]
  %21 = load %struct._IO_FILE*, %struct._IO_FILE** @stdout, align 8, !tbaa !5
  %22 = call i32 @putc(i32 %20, %struct._IO_FILE* %21) #3
  br label %23

23:                                               ; preds = %19, %13
  %24 = load %struct._IO_FILE*, %struct._IO_FILE** @stdin, align 8, !tbaa !5
  %25 = call i32 @getc(%struct._IO_FILE* %24) #3
  %26 = shl i32 %25, 24
  %27 = icmp eq i32 %26, 167772160
  br i1 %27, label %28, label %13, !llvm.loop !11

28:                                               ; preds = %23, %8
  %29 = load %struct._IO_FILE*, %struct._IO_FILE** @stdout, align 8, !tbaa !5
  %30 = call i32 @putc(i32 10, %struct._IO_FILE* %29) #3
  %31 = load i32, i32* %1, align 4, !tbaa !9
  %32 = add nsw i32 %31, -1
  store i32 %32, i32* %1, align 4, !tbaa !9
  %33 = icmp sgt i32 %31, 1
  br i1 %33, label %8, label %34, !llvm.loop !13

34:                                               ; preds = %28, %0
  call void @llvm.lifetime.end.p0i8(i64 4, i8* nonnull %2) #3
  ret void
}

; Function Attrs: argmemonly mustprogress nofree nosync nounwind willreturn
declare void @llvm.lifetime.start.p0i8(i64 immarg, i8* nocapture) #1

; Function Attrs: nofree nounwind
declare noundef i32 @__isoc99_scanf(i8* nocapture noundef readonly, ...) local_unnamed_addr #2

; Function Attrs: argmemonly mustprogress nofree nosync nounwind willreturn
declare void @llvm.lifetime.end.p0i8(i64 immarg, i8* nocapture) #1

; Function Attrs: nofree nounwind
declare noundef i32 @getc(%struct._IO_FILE* nocapture noundef) local_unnamed_addr #2

; Function Attrs: nofree nounwind
declare noundef i32 @putc(i32 noundef, %struct._IO_FILE* nocapture noundef) local_unnamed_addr #2


!llvm.module.flags = !{!0, !1, !2, !3}
!llvm.ident = !{!4}

!0 = !{i32 1, !"wchar_size", i32 4}
!1 = !{i32 7, !"PIC Level", i32 2}
!2 = !{i32 7, !"PIE Level", i32 2}
!3 = !{i32 7, !"uwtable", i32 1}
!4 = !{!"clang version 13.0.0"}
!5 = !{!6, !6, i64 0}
!6 = !{!"any pointer", !7, i64 0}
!7 = !{!"omnipotent char", !8, i64 0}
!8 = !{!"Simple C/C++ TBAA"}
!9 = !{!10, !10, i64 0}
!10 = !{!"int", !7, i64 0}
!11 = distinct !{!11, !12}
!12 = !{!"llvm.loop.mustprogress"}
!13 = distinct !{!13, !12}
